; ModuleID = '24/2427.c'
source_filename = "24/2427.c"
target datalayout = "e-m:e-p270:32:32-p271:32:32-p272:64:64-i64:64-f80:128-n8:16:32:64-S128"
target triple = "x86_64-pc-linux-gnu"

@.str = private unnamed_addr constant [4 x i8] c"%s\0A\00", align 1

; Function Attrs: noinline nounwind uwtable
define dso_local i32 @main() #0 {
  %1 = alloca i32, align 4
  %2 = alloca [200 x [20 x i8]], align 16
  %3 = alloca [200 x i32], align 16
  %4 = alloca i32, align 4
  %5 = alloca i32, align 4
  %6 = alloca i32, align 4
  %7 = alloca i32, align 4
  %8 = alloca i32, align 4
  %9 = alloca i8, align 1
  store i32 0, i32* %1, align 4
  %10 = bitcast [200 x [20 x i8]]* %2 to i8*
  call void @llvm.memset.p0i8.i64(i8* align 16 %10, i8 0, i64 4000, i1 false)
  store i32 0, i32* %6, align 4
  store i32 0, i32* %4, align 4
  store i32 0, i32* %5, align 4
  br label %11

11:                                               ; preds = %45, %0
  %12 = call i32 @getchar()
  %13 = trunc i32 %12 to i8
  store i8 %13, i8* %9, align 1
  %14 = sext i8 %13 to i32
  %15 = icmp ne i32 %14, 10
  br i1 %15, label %16, label %46

16:                                               ; preds = %11
  %17 = load i8, i8* %9, align 1
  %18 = sext i8 %17 to i32
  %19 = icmp eq i32 %18, 32
  br i1 %19, label %24, label %20

20:                                               ; preds = %16
  %21 = load i8, i8* %9, align 1
  %22 = sext i8 %21 to i32
  %23 = icmp eq i32 %22, 44
  br i1 %23, label %24, label %35

24:                                               ; preds = %20, %16
  %25 = load i32, i32* %6, align 4
  %26 = icmp eq i32 %25, 1
  br i1 %26, label %27, label %34

27:                                               ; preds = %24
  %28 = load i32, i32* %5, align 4
  %29 = load i32, i32* %4, align 4
  %30 = sext i32 %29 to i64
  %31 = getelementptr inbounds [200 x i32], [200 x i32]* %3, i64 0, i64 %30
  store i32 %28, i32* %31, align 4
  %32 = load i32, i32* %4, align 4
  %33 = add nsw i32 %32, 1
  store i32 %33, i32* %4, align 4
  store i32 0, i32* %5, align 4
  store i32 0, i32* %6, align 4
  br label %34

34:                                               ; preds = %27, %24
  br label %45

35:                                               ; preds = %20
  store i32 1, i32* %6, align 4
  %36 = load i8, i8* %9, align 1
  %37 = load i32, i32* %4, align 4
  %38 = sext i32 %37 to i64
  %39 = getelementptr inbounds [200 x [20 x i8]], [200 x [20 x i8]]* %2, i64 0, i64 %38
  %40 = load i32, i32* %5, align 4
  %41 = sext i32 %40 to i64
  %42 = getelementptr inbounds [20 x i8], [20 x i8]* %39, i64 0, i64 %41
  store i8 %36, i8* %42, align 1
  %43 = load i32, i32* %5, align 4
  %44 = add nsw i32 %43, 1
  store i32 %44, i32* %5, align 4
  br label %45

45:                                               ; preds = %35, %34
  br label %11

46:                                               ; preds = %11
  %47 = load i32, i32* %5, align 4
  %48 = load i32, i32* %4, align 4
  %49 = sext i32 %48 to i64
  %50 = getelementptr inbounds [200 x i32], [200 x i32]* %3, i64 0, i64 %49
  store i32 %47, i32* %50, align 4
  %51 = getelementptr inbounds [200 x i32], [200 x i32]* %3, i64 0, i64 0
  %52 = load i32, i32* %51, align 16
  store i32 %52, i32* %7, align 4
  %53 = getelementptr inbounds [200 x i32], [200 x i32]* %3, i64 0, i64 0
  %54 = load i32, i32* %53, align 16
  store i32 %54, i32* %8, align 4
  store i32 0, i32* %4, align 4
  br label %55

55:                                               ; preds = %88, %46
  %56 = load i32, i32* %4, align 4
  %57 = sext i32 %56 to i64
  %58 = getelementptr inbounds [200 x [20 x i8]], [200 x [20 x i8]]* %2, i64 0, i64 %57
  %59 = getelementptr inbounds [20 x i8], [20 x i8]* %58, i64 0, i64 0
  %60 = load i8, i8* %59, align 4
  %61 = sext i8 %60 to i32
  %62 = icmp ne i32 %61, 0
  br i1 %62, label %63, label %91

63:                                               ; preds = %55
  %64 = load i32, i32* %4, align 4
  %65 = sext i32 %64 to i64
  %66 = getelementptr inbounds [200 x i32], [200 x i32]* %3, i64 0, i64 %65
  %67 = load i32, i32* %66, align 4
  %68 = load i32, i32* %7, align 4
  %69 = icmp sgt i32 %67, %68
  br i1 %69, label %70, label %75

70:                                               ; preds = %63
  %71 = load i32, i32* %4, align 4
  %72 = sext i32 %71 to i64
  %73 = getelementptr inbounds [200 x i32], [200 x i32]* %3, i64 0, i64 %72
  %74 = load i32, i32* %73, align 4
  store i32 %74, i32* %7, align 4
  br label %75

75:                                               ; preds = %70, %63
  %76 = load i32, i32* %4, align 4
  %77 = sext i32 %76 to i64
  %78 = getelementptr inbounds [200 x i32], [200 x i32]* %3, i64 0, i64 %77
  %79 = load i32, i32* %78, align 4
  %80 = load i32, i32* %8, align 4
  %81 = icmp slt i32 %79, %80
  br i1 %81, label %82, label %87

82:                                               ; preds = %75
  %83 = load i32, i32* %4, align 4
  %84 = sext i32 %83 to i64
  %85 = getelementptr inbounds [200 x i32], [200 x i32]* %3, i64 0, i64 %84
  %86 = load i32, i32* %85, align 4
  store i32 %86, i32* %8, align 4
  br label %87

87:                                               ; preds = %82, %75
  br label %88

88:                                               ; preds = %87
  %89 = load i32, i32* %4, align 4
  %90 = add nsw i32 %89, 1
  store i32 %90, i32* %4, align 4
  br label %55

91:                                               ; preds = %55
  store i32 0, i32* %4, align 4
  br label %92

92:                                               ; preds = %114, %91
  %93 = load i32, i32* %4, align 4
  %94 = sext i32 %93 to i64
  %95 = getelementptr inbounds [200 x [20 x i8]], [200 x [20 x i8]]* %2, i64 0, i64 %94
  %96 = getelementptr inbounds [20 x i8], [20 x i8]* %95, i64 0, i64 0
  %97 = load i8, i8* %96, align 4
  %98 = sext i8 %97 to i32
  %99 = icmp ne i32 %98, 0
  br i1 %99, label %100, label %117

100:                                              ; preds = %92
  %101 = load i32, i32* %4, align 4
  %102 = sext i32 %101 to i64
  %103 = getelementptr inbounds [200 x i32], [200 x i32]* %3, i64 0, i64 %102
  %104 = load i32, i32* %103, align 4
  %105 = load i32, i32* %7, align 4
  %106 = icmp eq i32 %104, %105
  br i1 %106, label %107, label %113

107:                                              ; preds = %100
  %108 = load i32, i32* %4, align 4
  %109 = sext i32 %108 to i64
  %110 = getelementptr inbounds [200 x [20 x i8]], [200 x [20 x i8]]* %2, i64 0, i64 %109
  %111 = getelementptr inbounds [20 x i8], [20 x i8]* %110, i64 0, i64 0
  %112 = call i32 (i8*, ...) @printf(i8* getelementptr inbounds ([4 x i8], [4 x i8]* @.str, i64 0, i64 0), i8* %111)
  br label %117

113:                                              ; preds = %100
  br label %114

114:                                              ; preds = %113
  %115 = load i32, i32* %4, align 4
  %116 = add nsw i32 %115, 1
  store i32 %116, i32* %4, align 4
  br label %92

117:                                              ; preds = %107, %92
  store i32 0, i32* %4, align 4
  br label %118

118:                                              ; preds = %140, %117
  %119 = load i32, i32* %4, align 4
  %120 = sext i32 %119 to i64
  %121 = getelementptr inbounds [200 x [20 x i8]], [200 x [20 x i8]]* %2, i64 0, i64 %120
  %122 = getelementptr inbounds [20 x i8], [20 x i8]* %121, i64 0, i64 0
  %123 = load i8, i8* %122, align 4
  %124 = sext i8 %123 to i32
  %125 = icmp ne i32 %124, 0
  br i1 %125, label %126, label %143

126:                                              ; preds = %118
  %127 = load i32, i32* %4, align 4
  %128 = sext i32 %127 to i64
  %129 = getelementptr inbounds [200 x i32], [200 x i32]* %3, i64 0, i64 %128
  %130 = load i32, i32* %129, align 4
  %131 = load i32, i32* %8, align 4
  %132 = icmp eq i32 %130, %131
  br i1 %132, label %133, label %139

133:                                              ; preds = %126
  %134 = load i32, i32* %4, align 4
  %135 = sext i32 %134 to i64
  %136 = getelementptr inbounds [200 x [20 x i8]], [200 x [20 x i8]]* %2, i64 0, i64 %135
  %137 = getelementptr inbounds [20 x i8], [20 x i8]* %136, i64 0, i64 0
  %138 = call i32 (i8*, ...) @printf(i8* getelementptr inbounds ([4 x i8], [4 x i8]* @.str, i64 0, i64 0), i8* %137)
  br label %143

139:                                              ; preds = %126
  br label %140

140:                                              ; preds = %139
  %141 = load i32, i32* %4, align 4
  %142 = add nsw i32 %141, 1
  store i32 %142, i32* %4, align 4
  br label %118

143:                                              ; preds = %133, %118
  ret i32 0
}

; Function Attrs: argmemonly nounwind willreturn
declare void @llvm.memset.p0i8.i64(i8* nocapture writeonly, i8, i64, i1 immarg) #1

declare dso_local i32 @getchar() #2

declare dso_local i32 @printf(i8*, ...) #2


!llvm.module.flags = !{!0}
!llvm.ident = !{!1}

!0 = !{i32 1, !"wchar_size", i32 4}
!1 = !{!"clang version 10.0.0-4ubuntu1 "}
